target datalayout = "e-m:e-p270:32:32-p271:32:32-p272:64:64-i64:64-i128:128-f80:128-n8:16:32:64-S128"
target triple = "x86_64-pc-linux-gnu"

%struct.multi_pack_index = type { ptr, ptr, i64, ptr, ptr, i64, i32, i8, i8, i8, i32, i32, i32, i32, i32, ptr, i64, ptr, i64, ptr, ptr, ptr, ptr, i64, ptr, i64, ptr, i32, i32, ptr, ptr, ptr, [0 x i8] }
%struct.packed_git = type { %struct.hashmap_entry, ptr, %struct.list_head, ptr, i64, ptr, i64, i32, i64, %struct.oidset, i32, i64, i32, i32, i8, [32 x i8], ptr, ptr, ptr, i64, ptr, i64, ptr, [0 x i8] }
%struct.hashmap_entry = type { ptr, i32 }
%struct.list_head = type { ptr, ptr }
%struct.oidset = type { %struct.kh_oid_set }
%struct.kh_oid_set = type { i32, i32, i32, i32, ptr, ptr, ptr }

; Function Attrs: nounwind uwtable
define dso_local void @close_midx(ptr noundef %0) #0 {
  %2 = alloca ptr, align 8
  %3 = alloca i32, align 4
  %4 = alloca i32, align 4
  store ptr %0, ptr %2, align 8, !tbaa !4
  call void @llvm.lifetime.start.p0(i64 4, ptr %3) #13
  %5 = load ptr, ptr %2, align 8, !tbaa !4
  %6 = icmp ne ptr %5, null
  br i1 %6, label %8, label %7

7:                                                ; preds = %1
  store i32 1, ptr %4, align 4
  br label %71

8:                                                ; preds = %1
  %9 = load ptr, ptr %2, align 8, !tbaa !4
  %10 = getelementptr inbounds nuw %struct.multi_pack_index, ptr %9, i32 0, i32 0
  %11 = load ptr, ptr %10, align 8, !tbaa !4
  call void @close_midx(ptr noundef %11)
  %12 = load ptr, ptr %2, align 8, !tbaa !4
  %13 = getelementptr inbounds nuw %struct.multi_pack_index, ptr %12, i32 0, i32 26
  %14 = load ptr, ptr %13, align 8, !tbaa !4
  call void @close_midx(ptr noundef %14)
  %15 = load ptr, ptr %2, align 8, !tbaa !4
  %16 = getelementptr inbounds nuw %struct.multi_pack_index, ptr %15, i32 0, i32 1
  %17 = load ptr, ptr %16, align 8, !tbaa !9
  %18 = load ptr, ptr %2, align 8, !tbaa !4
  %19 = getelementptr inbounds nuw %struct.multi_pack_index, ptr %18, i32 0, i32 2
  %20 = load i64, ptr %19, align 8, !tbaa !11
  %21 = call i32 @munmap(ptr noundef %17, i64 noundef %20) #13
  store i32 0, ptr %3, align 4, !tbaa !40
  br label %22

22:                                               ; preds = %50, %8
  %23 = load i32, ptr %3, align 4, !tbaa !40
  %24 = load ptr, ptr %2, align 8, !tbaa !4
  %25 = getelementptr inbounds nuw %struct.multi_pack_index, ptr %24, i32 0, i32 10
  %26 = load i32, ptr %25, align 8, !tbaa !40
  %27 = icmp ult i32 %23, %26
  br i1 %27, label %28, label %53

28:                                               ; preds = %22
  %29 = load ptr, ptr %2, align 8, !tbaa !4
  %30 = getelementptr inbounds nuw %struct.multi_pack_index, ptr %29, i32 0, i32 30
  %31 = load ptr, ptr %30, align 8, !tbaa !52
  %32 = load i32, ptr %3, align 4, !tbaa !40
  %33 = zext i32 %32 to i64
  %34 = getelementptr inbounds nuw ptr, ptr %31, i64 %33
  %35 = load ptr, ptr %34, align 8, !tbaa !56
  %36 = icmp ne ptr %35, null
  br i1 %36, label %37, label %49

37:                                               ; preds = %28
  %38 = load ptr, ptr %2, align 8, !tbaa !4
  %39 = getelementptr inbounds nuw %struct.multi_pack_index, ptr %38, i32 0, i32 30
  %40 = load ptr, ptr %39, align 8, !tbaa !52
  %41 = load i32, ptr %3, align 4, !tbaa !40
  %42 = zext i32 %41 to i64
  %43 = getelementptr inbounds nuw ptr, ptr %40, i64 %42
  %44 = load ptr, ptr %43, align 8, !tbaa !56
  %45 = getelementptr inbounds nuw %struct.packed_git, ptr %44, i32 0, i32 14
  %46 = load i8, ptr %45, align 8
  %47 = and i8 %46, -65
  %48 = or i8 %47, 0
  store i8 %48, ptr %45, align 8
  br label %49

49:                                               ; preds = %37, %28
  br label %50

50:                                               ; preds = %49
  %51 = load i32, ptr %3, align 4, !tbaa !40
  %52 = add i32 %51, 1
  store i32 %52, ptr %3, align 4, !tbaa !40
  br label %22, !llvm.loop !58

53:                                               ; preds = %22
  br label %54

54:                                               ; preds = %53
  %55 = load ptr, ptr %2, align 8, !tbaa !4
  %56 = getelementptr inbounds nuw %struct.multi_pack_index, ptr %55, i32 0, i32 30
  %57 = load ptr, ptr %56, align 8, !tbaa !52
  call void @free(ptr noundef %57) #13
  %58 = load ptr, ptr %2, align 8, !tbaa !4
  %59 = getelementptr inbounds nuw %struct.multi_pack_index, ptr %58, i32 0, i32 30
  store ptr null, ptr %59, align 8, !tbaa !52
  br label %60

60:                                               ; preds = %54
  br label %61

61:                                               ; preds = %60
  br label %62

62:                                               ; preds = %61
  %63 = load ptr, ptr %2, align 8, !tbaa !4
  %64 = getelementptr inbounds nuw %struct.multi_pack_index, ptr %63, i32 0, i32 29
  %65 = load ptr, ptr %64, align 8, !tbaa !50
  call void @free(ptr noundef %65) #13
  %66 = load ptr, ptr %2, align 8, !tbaa !4
  %67 = getelementptr inbounds nuw %struct.multi_pack_index, ptr %66, i32 0, i32 29
  store ptr null, ptr %67, align 8, !tbaa !50
  br label %68

68:                                               ; preds = %62
  br label %69

69:                                               ; preds = %68
  %70 = load ptr, ptr %2, align 8, !tbaa !4
  call void @free(ptr noundef %70) #13
  store i32 0, ptr %4, align 4
  br label %71

71:                                               ; preds = %69, %7
  call void @llvm.lifetime.end.p0(i64 4, ptr %3) #13
  %72 = load i32, ptr %4, align 4
  switch i32 %72, label %74 [
    i32 0, label %73
    i32 1, label %73
  ]

73:                                               ; preds = %71, %71
  ret void

74:                                               ; preds = %71
  unreachable
}