; Function Attrs: nounwind uwtable
define dso_local void @close_midx(ptr noundef %0) local_unnamed_addr #1 {
  %.not = icmp eq ptr %0, null
  br i1 %.not, label %31, label %2

2:                                                ; preds = %1
  %3 = load ptr, ptr %0, align 8, !tbaa !44
  tail call void @close_midx(ptr noundef %3)
  %4 = getelementptr inbounds nuw i8, ptr %0, i64 168
  %5 = load ptr, ptr %4, align 8, !tbaa !44
  tail call void @close_midx(ptr noundef %5)
  %6 = getelementptr inbounds nuw i8, ptr %0, i64 8
  %7 = load ptr, ptr %6, align 8, !tbaa !4
  %8 = getelementptr inbounds nuw i8, ptr %0, i64 16
  %9 = load i64, ptr %8, align 8, !tbaa !9
  %10 = tail call i32 @munmap(ptr noundef %7, i64 noundef %9) #22
  %11 = getelementptr inbounds nuw i8, ptr %0, i64 56
  %12 = load i32, ptr %11, align 8, !tbaa !41
  %.not20 = icmp eq i32 %12, 0
  br i1 %.not20, label %._crit_edge, label %.lr.ph

.lr.ph:                                           ; preds = %2
  %13 = getelementptr inbounds nuw i8, ptr %0, i64 192
  br label %14

14:                                               ; preds = %.lr.ph, %23
  %15 = phi i32 [ %12, %.lr.ph ], [ %24, %23 ]
  %indvars.iv = phi i64 [ 0, %.lr.ph ], [ %indvars.iv.next, %23 ]
  %16 = load ptr, ptr %13, align 8, !tbaa !50
  %17 = getelementptr inbounds nuw ptr, ptr %16, i64 %indvars.iv
  %18 = load ptr, ptr %17, align 8, !tbaa !53
  %.not18 = icmp eq ptr %18, null
  br i1 %.not18, label %23, label %19

19:                                               ; preds = %14
  %20 = getelementptr inbounds nuw i8, ptr %18, i64 152
  %21 = load i8, ptr %20, align 8
  %22 = and i8 %21, -65
  store i8 %22, ptr %20, align 8
  %.pre = load i32, ptr %11, align 8, !tbaa !41
  br label %23

23:                                               ; preds = %14, %19
  %24 = phi i32 [ %15, %14 ], [ %.pre, %19 ]
  %indvars.iv.next = add nuw nsw i64 %indvars.iv, 1
  %25 = zext i32 %24 to i64
  %26 = icmp samesign ult i64 %indvars.iv.next, %25
  br i1 %26, label %14, label %._crit_edge, !llvm.loop !55

._crit_edge:                                      ; preds = %23, %2
  %27 = getelementptr inbounds nuw i8, ptr %0, i64 192
  %28 = load ptr, ptr %27, align 8, !tbaa !50
  tail call void @free(ptr noundef %28) #22
  store ptr null, ptr %27, align 8, !tbaa !50
  %29 = getelementptr inbounds nuw i8, ptr %0, i64 184
  %30 = load ptr, ptr %29, align 8, !tbaa !48
  tail call void @free(ptr noundef %30) #22
  tail call void @free(ptr noundef nonnull %0) #22
  br label %31

31:                                               ; preds = %1, %._crit_edge
  ret void
}